target datalayout = "e-m:e-p270:32:32-p271:32:32-p272:64:64-i64:64-i128:128-f80:128-n8:16:32:64-S128"
target triple = "x86_64-unknown-linux-gnu"

; Function Attrs: mustprogress nounwind uwtable
define dso_local void @_ZN4absl12crc_internal7CRCImpl13FillWordTableEjjiPA256_j(i32 noundef %poly, i32 noundef %last, i32 noundef %word_size, ptr noundef %t) #0 align 2 {
entry:
  %poly.addr = alloca i32, align 4
  %last.addr = alloca i32, align 4
  %word_size.addr = alloca i32, align 4
  %t.addr = alloca ptr, align 8
  %j = alloca i32, align 4
  %i = alloca i32, align 4
  %pred = alloca i32, align 4
  %i35 = alloca i32, align 4
  %k = alloca i32, align 4
  store i32 %poly, ptr %poly.addr, align 4
  store i32 %last, ptr %last.addr, align 4
  store i32 %word_size, ptr %word_size.addr, align 4
  store ptr %t, ptr %t.addr, align 8
  store i32 0, ptr %j, align 4
  br label %for.cond

for.cond:                                         ; preds = %for.inc62, %entry
  %0 = load i32, ptr %j, align 4
  %1 = load i32, ptr %word_size.addr, align 4
  %cmp = icmp ne i32 %0, %1
  br i1 %cmp, label %for.body, label %for.end64

for.body:                                         ; preds = %for.cond
  %2 = load ptr, ptr %t.addr, align 8
  %3 = load i32, ptr %j, align 4
  %idxprom = sext i32 %3 to i64
  %arrayidx = getelementptr inbounds [256 x i32], ptr %2, i64 %idxprom
  %arrayidx1 = getelementptr inbounds [256 x i32], ptr %arrayidx, i64 0, i64 0
  store i32 0, ptr %arrayidx1, align 4
  store i32 128, ptr %i, align 4
  br label %for.cond2

for.cond2:                                        ; preds = %for.inc, %for.body
  %4 = load i32, ptr %i, align 4
  %cmp3 = icmp ne i32 %4, 0
  br i1 %cmp3, label %for.body4, label %for.end

for.body4:                                        ; preds = %for.cond2
  %5 = load i32, ptr %j, align 4
  %cmp5 = icmp eq i32 %5, 0
  br i1 %cmp5, label %land.lhs.true, label %if.else

land.lhs.true:                                    ; preds = %for.body4
  %6 = load i32, ptr %i, align 4
  %cmp6 = icmp eq i32 %6, 128
  br i1 %cmp6, label %if.then, label %if.else

if.then:                                          ; preds = %land.lhs.true
  %7 = load i32, ptr %last.addr, align 4
  %8 = load ptr, ptr %t.addr, align 8
  %9 = load i32, ptr %j, align 4
  %idxprom7 = sext i32 %9 to i64
  %arrayidx8 = getelementptr inbounds [256 x i32], ptr %8, i64 %idxprom7
  %10 = load i32, ptr %i, align 4
  %idxprom9 = sext i32 %10 to i64
  %arrayidx10 = getelementptr inbounds [256 x i32], ptr %arrayidx8, i64 0, i64 %idxprom9
  store i32 %7, ptr %arrayidx10, align 4
  br label %if.end33

if.else:                                          ; preds = %land.lhs.true, %for.body4
  %11 = load i32, ptr %i, align 4
  %cmp11 = icmp eq i32 %11, 128
  br i1 %cmp11, label %if.then12, label %if.else16

if.then12:                                        ; preds = %if.else
  %12 = load ptr, ptr %t.addr, align 8
  %13 = load i32, ptr %j, align 4
  %sub = sub nsw i32 %13, 1
  %idxprom13 = sext i32 %sub to i64
  %arrayidx14 = getelementptr inbounds [256 x i32], ptr %12, i64 %idxprom13
  %arrayidx15 = getelementptr inbounds [256 x i32], ptr %arrayidx14, i64 0, i64 1
  %14 = load i32, ptr %arrayidx15, align 4
  store i32 %14, ptr %pred, align 4
  br label %if.end

if.else16:                                        ; preds = %if.else
  %15 = load ptr, ptr %t.addr, align 8
  %16 = load i32, ptr %j, align 4
  %idxprom17 = sext i32 %16 to i64
  %arrayidx18 = getelementptr inbounds [256 x i32], ptr %15, i64 %idxprom17
  %17 = load i32, ptr %i, align 4
  %shl = shl i32 %17, 1
  %idxprom19 = sext i32 %shl to i64
  %arrayidx20 = getelementptr inbounds [256 x i32], ptr %arrayidx18, i64 0, i64 %idxprom19
  %18 = load i32, ptr %arrayidx20, align 4
  store i32 %18, ptr %pred, align 4
  br label %if.end

if.end:                                           ; preds = %if.else16, %if.then12
  %19 = load i32, ptr %pred, align 4
  %and = and i32 %19, 1
  %tobool = icmp ne i32 %and, 0
  br i1 %tobool, label %if.then21, label %if.else26

if.then21:                                        ; preds = %if.end
  %20 = load i32, ptr %pred, align 4
  %shr = lshr i32 %20, 1
  %21 = load i32, ptr %poly.addr, align 4
  %xor = xor i32 %shr, %21
  %22 = load ptr, ptr %t.addr, align 8
  %23 = load i32, ptr %j, align 4
  %idxprom22 = sext i32 %23 to i64
  %arrayidx23 = getelementptr inbounds [256 x i32], ptr %22, i64 %idxprom22
  %24 = load i32, ptr %i, align 4
  %idxprom24 = sext i32 %24 to i64
  %arrayidx25 = getelementptr inbounds [256 x i32], ptr %arrayidx23, i64 0, i64 %idxprom24
  store i32 %xor, ptr %arrayidx25, align 4
  br label %if.end32

if.else26:                                        ; preds = %if.end
  %25 = load i32, ptr %pred, align 4
  %shr27 = lshr i32 %25, 1
  %26 = load ptr, ptr %t.addr, align 8
  %27 = load i32, ptr %j, align 4
  %idxprom28 = sext i32 %27 to i64
  %arrayidx29 = getelementptr inbounds [256 x i32], ptr %26, i64 %idxprom28
  %28 = load i32, ptr %i, align 4
  %idxprom30 = sext i32 %28 to i64
  %arrayidx31 = getelementptr inbounds [256 x i32], ptr %arrayidx29, i64 0, i64 %idxprom30
  store i32 %shr27, ptr %arrayidx31, align 4
  br label %if.end32

if.end32:                                         ; preds = %if.else26, %if.then21
  br label %if.end33

if.end33:                                         ; preds = %if.end32, %if.then
  br label %for.inc

for.inc:                                          ; preds = %if.end33
  %29 = load i32, ptr %i, align 4
  %shr34 = ashr i32 %29, 1
  store i32 %shr34, ptr %i, align 4
  br label %for.cond2, !llvm.loop !5

for.end:                                          ; preds = %for.cond2
  store i32 2, ptr %i35, align 4
  br label %for.cond36

for.cond36:                                       ; preds = %for.inc59, %for.end
  %30 = load i32, ptr %i35, align 4
  %cmp37 = icmp ne i32 %30, 256
  br i1 %cmp37, label %for.body38, label %for.end61

for.body38:                                       ; preds = %for.cond36
  %31 = load i32, ptr %i35, align 4
  %add = add nsw i32 %31, 1
  store i32 %add, ptr %k, align 4
  br label %for.cond39

for.cond39:                                       ; preds = %for.inc57, %for.body38
  %32 = load i32, ptr %k, align 4
  %33 = load i32, ptr %i35, align 4
  %shl40 = shl i32 %33, 1
  %cmp41 = icmp ne i32 %32, %shl40
  br i1 %cmp41, label %for.body42, label %for.end58

for.body42:                                       ; preds = %for.cond39
  %34 = load ptr, ptr %t.addr, align 8
  %35 = load i32, ptr %j, align 4
  %idxprom43 = sext i32 %35 to i64
  %arrayidx44 = getelementptr inbounds [256 x i32], ptr %34, i64 %idxprom43
  %36 = load i32, ptr %i35, align 4
  %idxprom45 = sext i32 %36 to i64
  %arrayidx46 = getelementptr inbounds [256 x i32], ptr %arrayidx44, i64 0, i64 %idxprom45
  %37 = load i32, ptr %arrayidx46, align 4
  %38 = load ptr, ptr %t.addr, align 8
  %39 = load i32, ptr %j, align 4
  %idxprom47 = sext i32 %39 to i64
  %arrayidx48 = getelementptr inbounds [256 x i32], ptr %38, i64 %idxprom47
  %40 = load i32, ptr %k, align 4
  %41 = load i32, ptr %i35, align 4
  %sub49 = sub nsw i32 %40, %41
  %idxprom50 = sext i32 %sub49 to i64
  %arrayidx51 = getelementptr inbounds [256 x i32], ptr %arrayidx48, i64 0, i64 %idxprom50
  %42 = load i32, ptr %arrayidx51, align 4
  %xor52 = xor i32 %37, %42
  %43 = load ptr, ptr %t.addr, align 8
  %44 = load i32, ptr %j, align 4
  %idxprom53 = sext i32 %44 to i64
  %arrayidx54 = getelementptr inbounds [256 x i32], ptr %43, i64 %idxprom53
  %45 = load i32, ptr %k, align 4
  %idxprom55 = sext i32 %45 to i64
  %arrayidx56 = getelementptr inbounds [256 x i32], ptr %arrayidx54, i64 0, i64 %idxprom55
  store i32 %xor52, ptr %arrayidx56, align 4
  br label %for.inc57

for.inc57:                                        ; preds = %for.body42
  %46 = load i32, ptr %k, align 4
  %inc = add nsw i32 %46, 1
  store i32 %inc, ptr %k, align 4
  br label %for.cond39, !llvm.loop !7

for.end58:                                        ; preds = %for.cond39
  br label %for.inc59

for.inc59:                                        ; preds = %for.end58
  %47 = load i32, ptr %i35, align 4
  %shl60 = shl i32 %47, 1
  store i32 %shl60, ptr %i35, align 4
  br label %for.cond36, !llvm.loop !8

for.end61:                                        ; preds = %for.cond36
  br label %for.inc62

for.inc62:                                        ; preds = %for.end61
  %48 = load i32, ptr %j, align 4
  %inc63 = add nsw i32 %48, 1
  store i32 %inc63, ptr %j, align 4
  br label %for.cond, !llvm.loop !9

for.end64:                                        ; preds = %for.cond
  ret void
}