; Function Attrs: mustprogress nofree norecurse nosync nounwind memory(read, argmem: readwrite, inaccessiblemem: none) uwtable
define dso_local void @_ZN4absl12crc_internal7CRCImpl13FillWordTableEjjiPA256_j(i32 noundef %poly, i32 noundef %last, i32 noundef %word_size, ptr nocapture noundef %t) local_unnamed_addr #0 align 2 {
entry:
  %cmp.not40 = icmp eq i32 %word_size, 0
  br i1 %cmp.not40, label %for.end64, label %for.body.preheader

for.body.preheader:                               ; preds = %entry
  %0 = zext i32 %word_size to i64
  br label %for.body

for.body:                                         ; preds = %for.body.preheader, %for.inc62
  %indvars.iv45 = phi i64 [ 0, %for.body.preheader ], [ %indvars.iv.next46, %for.inc62 ]
  %arrayidx = getelementptr inbounds [256 x i32], ptr %t, i64 %indvars.iv45
  store i32 0, ptr %arrayidx, align 4
  %cmp5 = icmp eq i64 %indvars.iv45, 0
  %arrayidx15 = getelementptr i8, ptr %arrayidx, i64 -1020
  %arrayidx10 = getelementptr inbounds i8, ptr %arrayidx, i64 512
  br i1 %cmp5, label %for.body4, label %for.body4.us

for.body4.us:                                     ; preds = %for.body, %for.body4.us
  %i.037.us = phi i32 [ %shr34.us, %for.body4.us ], [ 128, %for.body ]
  %cmp6.us = icmp eq i32 %i.037.us, 128
  %shl.us = shl nuw nsw i32 %i.037.us, 1
  %idxprom19.us = zext nneg i32 %shl.us to i64
  %arrayidx20.us = getelementptr inbounds [256 x i32], ptr %t, i64 %indvars.iv45, i64 %idxprom19.us
  %pred.0.in.us = select i1 %cmp6.us, ptr %arrayidx15, ptr %arrayidx20.us
  %pred.0.us = load i32, ptr %pred.0.in.us, align 4
  %and.us = and i32 %pred.0.us, 1
  %tobool.not.us = icmp eq i32 %and.us, 0
  %shr27.us = lshr i32 %pred.0.us, 1
  %xor.us = select i1 %tobool.not.us, i32 0, i32 %poly
  %shr27.us.sink = xor i32 %shr27.us, %xor.us
  %idxprom30.us = zext nneg i32 %i.037.us to i64
  %arrayidx31.us = getelementptr inbounds [256 x i32], ptr %t, i64 %indvars.iv45, i64 %idxprom30.us
  store i32 %shr27.us.sink, ptr %arrayidx31.us, align 4
  %shr34.us = lshr i32 %i.037.us, 1
  %cmp3.not.us = icmp ult i32 %i.037.us, 2
  br i1 %cmp3.not.us, label %for.body38.preheader, label %for.body4.us, !llvm.loop !5

for.body4:                                        ; preds = %for.body, %for.inc
  %i.037 = phi i32 [ %shr34, %for.inc ], [ 128, %for.body ]
  %cmp6 = icmp eq i32 %i.037, 128
  br i1 %cmp6, label %if.then, label %if.else

if.then:                                          ; preds = %for.body4
  store i32 %last, ptr %arrayidx10, align 4
  br label %for.inc

if.else:                                          ; preds = %for.body4
  %shl = shl nuw nsw i32 %i.037, 1
  %idxprom19 = zext nneg i32 %shl to i64
  %arrayidx20 = getelementptr inbounds [256 x i32], ptr %t, i64 0, i64 %idxprom19
  %pred.0 = load i32, ptr %arrayidx20, align 4
  %and = and i32 %pred.0, 1
  %tobool.not = icmp eq i32 %and, 0
  %shr27 = lshr i32 %pred.0, 1
  br i1 %tobool.not, label %if.else26, label %if.then21

if.then21:                                        ; preds = %if.else
  %xor = xor i32 %shr27, %poly
  %idxprom24 = zext nneg i32 %i.037 to i64
  %arrayidx25 = getelementptr inbounds [256 x i32], ptr %t, i64 0, i64 %idxprom24
  store i32 %xor, ptr %arrayidx25, align 4
  br label %for.inc

if.else26:                                        ; preds = %if.else
  %idxprom30 = zext nneg i32 %i.037 to i64
  %arrayidx31 = getelementptr inbounds [256 x i32], ptr %t, i64 0, i64 %idxprom30
  store i32 %shr27, ptr %arrayidx31, align 4
  br label %for.inc

for.inc:                                          ; preds = %if.then, %if.else26, %if.then21
  %shr34 = lshr i32 %i.037, 1
  %cmp3.not = icmp ult i32 %i.037, 2
  br i1 %cmp3.not, label %for.body38.preheader, label %for.body4, !llvm.loop !5

for.body38.preheader:                             ; preds = %for.body4.us, %for.inc
  br label %for.body38

for.cond36.loopexit:                              ; preds = %for.body42
  %cmp37.not = icmp eq i32 %shl40, 256
  br i1 %cmp37.not, label %for.inc62, label %for.body38, !llvm.loop !7

for.body38:                                       ; preds = %for.body38.preheader, %for.cond36.loopexit
  %i35.039 = phi i32 [ %shl40, %for.cond36.loopexit ], [ 2, %for.body38.preheader ]
  %shl40 = shl i32 %i35.039, 1
  %idxprom45 = sext i32 %i35.039 to i64
  %arrayidx46 = getelementptr inbounds [256 x i32], ptr %t, i64 %indvars.iv45, i64 %idxprom45
  %1 = or disjoint i32 %i35.039, 1
  %2 = zext i32 %1 to i64
  %3 = zext i32 %shl40 to i64
  br label %for.body42

for.body42:                                       ; preds = %for.body38, %for.body42
  %indvars.iv = phi i64 [ %2, %for.body38 ], [ %indvars.iv.next, %for.body42 ]
  %4 = load i32, ptr %arrayidx46, align 4
  %5 = sub nuw nsw i64 %indvars.iv, %idxprom45
  %arrayidx51 = getelementptr inbounds [256 x i32], ptr %t, i64 %indvars.iv45, i64 %5
  %6 = load i32, ptr %arrayidx51, align 4
  %xor52 = xor i32 %6, %4
  %arrayidx56 = getelementptr inbounds [256 x i32], ptr %t, i64 %indvars.iv45, i64 %indvars.iv
  store i32 %xor52, ptr %arrayidx56, align 4
  %indvars.iv.next = add nuw nsw i64 %indvars.iv, 1
  %cmp41.not = icmp eq i64 %indvars.iv.next, %3
  br i1 %cmp41.not, label %for.cond36.loopexit, label %for.body42, !llvm.loop !8

for.inc62:                                        ; preds = %for.cond36.loopexit
  %indvars.iv.next46 = add nuw nsw i64 %indvars.iv45, 1
  %cmp.not = icmp eq i64 %indvars.iv.next46, %0
  br i1 %cmp.not, label %for.end64, label %for.body, !llvm.loop !9

for.end64:                                        ; preds = %for.inc62, %entry
  ret void
}